target datalayout = "e-m:e-p270:32:32-p271:32:32-p272:64:64-i64:64-i128:128-f80:128-n8:16:32:64-S128"
target triple = "x86_64-pc-linux-gnu"

%struct.MPVEncContext = type { %struct.MpegEncContext, %struct.PutBitContext, i32, i32, ptr, i32, i32, i32, i32, i32, i32, i32, i32, ptr, ptr, %struct.FDCTDSPContext, %struct.MpegvideoEncDSPContext, %struct.PixblockDSPContext, %struct.MotionEstContext, i32, i32, ptr, ptr, ptr, ptr, ptr, ptr, [2 x [2 x [2 x ptr]]], [2 x ptr], [2 x [2 x ptr]], ptr, ptr, ptr, ptr, [3 x i64], i32, i32, i32, i32, i32, ptr, ptr, ptr, ptr, ptr, ptr, ptr, [12 x i32], ptr, ptr, ptr, ptr, ptr, ptr, ptr, ptr, [2 x i32], ptr, i32, i32, i32, i32, i32, i32, i32, i32, i32, i32, ptr, ptr, i32, i32, %struct.PutBitContext, %struct.PutBitContext, i32, i32, i32, i32, ptr, ptr, ptr, [2 x ptr], [2 x ptr], [2 x ptr], [2 x ptr], ptr, i32 }
%struct.MpegEncContext = type { ptr, i32, i32, i32, [12 x i32], i32, %struct.ScanTable, %struct.ScanTable, [64 x i8], [64 x i8], ptr, ptr, i32, i32, i32, i32, i32, i32, i32, i32, i32, i32, i32, i32, i32, i32, i32, i32, i32, i32, i32, i32, i64, i64, ptr, %struct.BufferPoolContext, i32, i32, %union.anon, i32, %struct.MPVWorkPicture, %struct.MPVWorkPicture, %struct.MPVWorkPicture, i32, [3 x i32], ptr, [3 x ptr], ptr, ptr, ptr, ptr, ptr, ptr, [3 x ptr], i32, ptr, ptr, ptr, ptr, %struct.ScratchpadContext, i32, i32, i32, i32, i32, i32, %struct.BlockDSPContext, %struct.H264ChromaContext, %struct.HpelDSPContext, %struct.IDCTDSPContext, %struct.QpelDSPContext, %struct.VideoDSPContext, %struct.H263DSPContext, ptr, [2 x [2 x ptr]], i32, i32, [2 x [4 x [2 x i32]]], [2 x [2 x i32]], [2 x [2 x [2 x i32]]], [2 x [64 x i16]], i32, i32, i32, i32, i32, [6 x i32], [6 x i32], [3 x ptr], ptr, [64 x i16], [64 x i16], [64 x i16], [64 x i16], i32, i32, %struct.GetBitContext, i32, i32, i32, i32, i32, i32, i32, i32, i32, i32, i32, i32, i32, i32, i32, i64, i64, i16, i16, i16, i16, i32, i32, i32, i32, i32, i32, i32, i32, i32, [3 x i32], i32, i32, i32, i32, i32, i32, %struct.GetBitContext, i32, [2 x [2 x i32]], i32, i32, i32, i32, i32, i32, i32, i32, i32, i32, i32, i32, i32, i32, [2 x i32], i32, i32, ptr, ptr, ptr, ptr, ptr, i32, i32, %struct.ERContext }
%struct.ScanTable = type { ptr, [64 x i8], [64 x i8] }
%struct.BufferPoolContext = type { ptr, ptr, ptr, ptr, ptr, i32, i32, i32 }
%union.anon = type { [32 x ptr] }
%struct.MPVWorkPicture = type { [3 x ptr], [3 x i64], ptr, ptr, [2 x ptr], ptr, ptr, [2 x ptr], i32 }
%struct.ScratchpadContext = type { ptr, ptr, %union.anon.0, i32 }
%union.anon.0 = type { ptr }
%struct.BlockDSPContext = type { ptr, ptr, [2 x ptr] }
%struct.H264ChromaContext = type { [4 x ptr], [4 x ptr] }
%struct.HpelDSPContext = type { [4 x [4 x ptr]], [4 x [4 x ptr]], [4 x [4 x ptr]], [4 x ptr] }
%struct.IDCTDSPContext = type { ptr, ptr, ptr, ptr, ptr, ptr, [64 x i8], i32, i32 }
%struct.QpelDSPContext = type { [2 x [16 x ptr]], [2 x [16 x ptr]], [2 x [16 x ptr]] }
%struct.VideoDSPContext = type { ptr, ptr }
%struct.H263DSPContext = type { ptr, ptr }
%struct.GetBitContext = type { ptr, ptr, i32, i32, i32 }
%struct.ERContext = type { ptr, ptr, i32, ptr, i32, i32, i32, i64, i64, i32, i32, ptr, ptr, [3 x ptr], ptr, ptr, [2 x [4 x [2 x i32]]], %struct.ERPicture, %struct.ERPicture, %struct.ERPicture, [2 x ptr], [2 x ptr], i16, i16, i32, i32, ptr, ptr }
%struct.ERPicture = type { ptr, ptr, ptr, [2 x ptr], [2 x ptr], ptr, i32 }
%struct.FDCTDSPContext = type { ptr, ptr }
%struct.MpegvideoEncDSPContext = type { ptr, ptr, ptr, ptr, [4 x ptr], ptr }
%struct.PixblockDSPContext = type { ptr, ptr, ptr, ptr }
%struct.MotionEstContext = type { ptr, i32, i32, [4 x [2 x i32]], [4 x [2 x i32]], ptr, ptr, i32, i32, i32, i32, i32, i32, i32, i32, i32, i32, i32, i32, i32, i32, i32, i32, [4 x [4 x ptr]], [4 x [4 x ptr]], i32, i32, i64, i64, i32, [6 x ptr], [6 x ptr], [6 x ptr], [6 x ptr], [2 x [4 x ptr]], ptr, ptr, ptr, ptr, ptr, ptr, ptr, ptr, [64 x i32], [64 x i32] }
%struct.PutBitContext = type { i32, i32, ptr, ptr, ptr }

; Function Attrs: nounwind uwtable
define void @ff_clean_h263_qscales(ptr noundef %0) #2 {
  %2 = alloca ptr, align 8
  %3 = alloca ptr, align 8
  %4 = alloca i32, align 4
  %5 = alloca i32, align 4
  %6 = alloca i32, align 4
  %7 = alloca i32, align 4
  store ptr %0, ptr %2, align 8, !tbaa !20
  call void @llvm.lifetime.start.p0(i64 8, ptr %3) #11
  %8 = load ptr, ptr %2, align 8, !tbaa !20
  %9 = getelementptr inbounds nuw %struct.MPVEncContext, ptr %8, i32 0, i32 0
  %10 = getelementptr inbounds nuw %struct.MpegEncContext, ptr %9, i32 0, i32 42
  %11 = getelementptr inbounds nuw %struct.MPVWorkPicture, ptr %10, i32 0, i32 3
  %12 = load ptr, ptr %11, align 8, !tbaa !67
  store ptr %12, ptr %3, align 8, !tbaa !68
  call void @llvm.lifetime.start.p0(i64 4, ptr %4) #11
  store i32 1, ptr %4, align 4, !tbaa !9
  br label %13

13:                                               ; preds = %80, %1
  %14 = load i32, ptr %4, align 4, !tbaa !9
  %15 = load ptr, ptr %2, align 8, !tbaa !20
  %16 = getelementptr inbounds nuw %struct.MPVEncContext, ptr %15, i32 0, i32 0
  %17 = getelementptr inbounds nuw %struct.MpegEncContext, ptr %16, i32 0, i32 31
  %18 = load i32, ptr %17, align 4, !tbaa !58
  %19 = icmp slt i32 %14, %18
  br i1 %19, label %21, label %20

20:                                               ; preds = %13
  call void @llvm.lifetime.end.p0(i64 4, ptr %4) #11
  br label %83

21:                                               ; preds = %13
  %22 = load ptr, ptr %3, align 8, !tbaa !68
  %23 = load ptr, ptr %2, align 8, !tbaa !20
  %24 = getelementptr inbounds nuw %struct.MPVEncContext, ptr %23, i32 0, i32 0
  %25 = getelementptr inbounds nuw %struct.MpegEncContext, ptr %24, i32 0, i32 89
  %26 = load ptr, ptr %25, align 8, !tbaa !69
  %27 = load i32, ptr %4, align 4, !tbaa !9
  %28 = sext i32 %27 to i64
  %29 = getelementptr inbounds i32, ptr %26, i64 %28
  %30 = load i32, ptr %29, align 4, !tbaa !9
  %31 = sext i32 %30 to i64
  %32 = getelementptr inbounds i8, ptr %22, i64 %31
  %33 = load i8, ptr %32, align 1, !tbaa !11
  %34 = sext i8 %33 to i32
  %35 = load ptr, ptr %3, align 8, !tbaa !68
  %36 = load ptr, ptr %2, align 8, !tbaa !20
  %37 = getelementptr inbounds nuw %struct.MPVEncContext, ptr %36, i32 0, i32 0
  %38 = getelementptr inbounds nuw %struct.MpegEncContext, ptr %37, i32 0, i32 89
  %39 = load ptr, ptr %38, align 8, !tbaa !69
  %40 = load i32, ptr %4, align 4, !tbaa !9
  %41 = sub nsw i32 %40, 1
  %42 = sext i32 %41 to i64
  %43 = getelementptr inbounds i32, ptr %39, i64 %42
  %44 = load i32, ptr %43, align 4, !tbaa !9
  %45 = sext i32 %44 to i64
  %46 = getelementptr inbounds i8, ptr %35, i64 %45
  %47 = load i8, ptr %46, align 1, !tbaa !11
  %48 = sext i8 %47 to i32
  %49 = sub nsw i32 %34, %48
  %50 = icmp sgt i32 %49, 2
  br i1 %50, label %51, label %79

51:                                               ; preds = %21
  %52 = load ptr, ptr %3, align 8, !tbaa !68
  %53 = load ptr, ptr %2, align 8, !tbaa !20
  %54 = getelementptr inbounds nuw %struct.MPVEncContext, ptr %53, i32 0, i32 0
  %55 = getelementptr inbounds nuw %struct.MpegEncContext, ptr %54, i32 0, i32 89
  %56 = load ptr, ptr %55, align 8, !tbaa !69
  %57 = load i32, ptr %4, align 4, !tbaa !9
  %58 = sub nsw i32 %57, 1
  %59 = sext i32 %58 to i64
  %60 = getelementptr inbounds i32, ptr %56, i64 %59
  %61 = load i32, ptr %60, align 4, !tbaa !9
  %62 = sext i32 %61 to i64
  %63 = getelementptr inbounds i8, ptr %52, i64 %62
  %64 = load i8, ptr %63, align 1, !tbaa !11
  %65 = sext i8 %64 to i32
  %66 = add nsw i32 %65, 2
  %67 = trunc i32 %66 to i8
  %68 = load ptr, ptr %3, align 8, !tbaa !68
  %69 = load ptr, ptr %2, align 8, !tbaa !20
  %70 = getelementptr inbounds nuw %struct.MPVEncContext, ptr %69, i32 0, i32 0
  %71 = getelementptr inbounds nuw %struct.MpegEncContext, ptr %70, i32 0, i32 89
  %72 = load ptr, ptr %71, align 8, !tbaa !69
  %73 = load i32, ptr %4, align 4, !tbaa !9
  %74 = sext i32 %73 to i64
  %75 = getelementptr inbounds i32, ptr %72, i64 %74
  %76 = load i32, ptr %75, align 4, !tbaa !9
  %77 = sext i32 %76 to i64
  %78 = getelementptr inbounds i8, ptr %68, i64 %77
  store i8 %67, ptr %78, align 1, !tbaa !11
  br label %79

79:                                               ; preds = %51, %21
  br label %80

80:                                               ; preds = %79
  %81 = load i32, ptr %4, align 4, !tbaa !9
  %82 = add nsw i32 %81, 1
  store i32 %82, ptr %4, align 4, !tbaa !9
  br label %13, !llvm.loop !70

83:                                               ; preds = %20
  call void @llvm.lifetime.start.p0(i64 4, ptr %5) #11
  %84 = load ptr, ptr %2, align 8, !tbaa !20
  %85 = getelementptr inbounds nuw %struct.MPVEncContext, ptr %84, i32 0, i32 0
  %86 = getelementptr inbounds nuw %struct.MpegEncContext, ptr %85, i32 0, i32 31
  %87 = load i32, ptr %86, align 4, !tbaa !58
  %88 = sub nsw i32 %87, 2
  store i32 %88, ptr %5, align 4, !tbaa !9
  br label %89

89:                                               ; preds = %152, %83
  %90 = load i32, ptr %5, align 4, !tbaa !9
  %91 = icmp sge i32 %90, 0
  br i1 %91, label %93, label %92

92:                                               ; preds = %89
  call void @llvm.lifetime.end.p0(i64 4, ptr %5) #11
  br label %155

93:                                               ; preds = %89
  %94 = load ptr, ptr %3, align 8, !tbaa !68
  %95 = load ptr, ptr %2, align 8, !tbaa !20
  %96 = getelementptr inbounds nuw %struct.MPVEncContext, ptr %95, i32 0, i32 0
  %97 = getelementptr inbounds nuw %struct.MpegEncContext, ptr %96, i32 0, i32 89
  %98 = load ptr, ptr %97, align 8, !tbaa !69
  %99 = load i32, ptr %5, align 4, !tbaa !9
  %100 = sext i32 %99 to i64
  %101 = getelementptr inbounds i32, ptr %98, i64 %100
  %102 = load i32, ptr %101, align 4, !tbaa !9
  %103 = sext i32 %102 to i64
  %104 = getelementptr inbounds i8, ptr %94, i64 %103
  %105 = load i8, ptr %104, align 1, !tbaa !11
  %106 = sext i8 %105 to i32
  %107 = load ptr, ptr %3, align 8, !tbaa !68
  %108 = load ptr, ptr %2, align 8, !tbaa !20
  %109 = getelementptr inbounds nuw %struct.MPVEncContext, ptr %108, i32 0, i32 0
  %110 = getelementptr inbounds nuw %struct.MpegEncContext, ptr %109, i32 0, i32 89
  %111 = load ptr, ptr %110, align 8, !tbaa !69
  %112 = load i32, ptr %5, align 4, !tbaa !9
  %113 = add nsw i32 %112, 1
  %114 = sext i32 %113 to i64
  %115 = getelementptr inbounds i32, ptr %111, i64 %114
  %116 = load i32, ptr %115, align 4, !tbaa !9
  %117 = sext i32 %116 to i64
  %118 = getelementptr inbounds i8, ptr %107, i64 %117
  %119 = load i8, ptr %118, align 1, !tbaa !11
  %120 = sext i8 %119 to i32
  %121 = sub nsw i32 %106, %120
  %122 = icmp sgt i32 %121, 2
  br i1 %122, label %123, label %151

123:                                              ; preds = %93
  %124 = load ptr, ptr %3, align 8, !tbaa !68
  %125 = load ptr, ptr %2, align 8, !tbaa !20
  %126 = getelementptr inbounds nuw %struct.MPVEncContext, ptr %125, i32 0, i32 0
  %127 = getelementptr inbounds nuw %struct.MpegEncContext, ptr %126, i32 0, i32 89
  %128 = load ptr, ptr %127, align 8, !tbaa !69
  %129 = load i32, ptr %5, align 4, !tbaa !9
  %130 = add nsw i32 %129, 1
  %131 = sext i32 %130 to i64
  %132 = getelementptr inbounds i32, ptr %128, i64 %131
  %133 = load i32, ptr %132, align 4, !tbaa !9
  %134 = sext i32 %133 to i64
  %135 = getelementptr inbounds i8, ptr %124, i64 %134
  %136 = load i8, ptr %135, align 1, !tbaa !11
  %137 = sext i8 %136 to i32
  %138 = add nsw i32 %137, 2
  %139 = trunc i32 %138 to i8
  %140 = load ptr, ptr %3, align 8, !tbaa !68
  %141 = load ptr, ptr %2, align 8, !tbaa !20
  %142 = getelementptr inbounds nuw %struct.MPVEncContext, ptr %141, i32 0, i32 0
  %143 = getelementptr inbounds nuw %struct.MpegEncContext, ptr %142, i32 0, i32 89
  %144 = load ptr, ptr %143, align 8, !tbaa !69
  %145 = load i32, ptr %5, align 4, !tbaa !9
  %146 = sext i32 %145 to i64
  %147 = getelementptr inbounds i32, ptr %144, i64 %146
  %148 = load i32, ptr %147, align 4, !tbaa !9
  %149 = sext i32 %148 to i64
  %150 = getelementptr inbounds i8, ptr %140, i64 %149
  store i8 %139, ptr %150, align 1, !tbaa !11
  br label %151

151:                                              ; preds = %123, %93
  br label %152

152:                                              ; preds = %151
  %153 = load i32, ptr %5, align 4, !tbaa !9
  %154 = add nsw i32 %153, -1
  store i32 %154, ptr %5, align 4, !tbaa !9
  br label %89, !llvm.loop !71

155:                                              ; preds = %92
  %156 = load ptr, ptr %2, align 8, !tbaa !20
  %157 = getelementptr inbounds nuw %struct.MPVEncContext, ptr %156, i32 0, i32 0
  %158 = getelementptr inbounds nuw %struct.MpegEncContext, ptr %157, i32 0, i32 19
  %159 = load i32, ptr %158, align 4, !tbaa !72
  %160 = icmp ne i32 %159, 19
  br i1 %160, label %161, label %227

161:                                              ; preds = %155
  call void @llvm.lifetime.start.p0(i64 4, ptr %6) #11
  store i32 1, ptr %6, align 4, !tbaa !9
  br label %162

162:                                              ; preds = %223, %161
  %163 = load i32, ptr %6, align 4, !tbaa !9
  %164 = load ptr, ptr %2, align 8, !tbaa !20
  %165 = getelementptr inbounds nuw %struct.MPVEncContext, ptr %164, i32 0, i32 0
  %166 = getelementptr inbounds nuw %struct.MpegEncContext, ptr %165, i32 0, i32 31
  %167 = load i32, ptr %166, align 4, !tbaa !58
  %168 = icmp slt i32 %163, %167
  br i1 %168, label %170, label %169

169:                                              ; preds = %162
  call void @llvm.lifetime.end.p0(i64 4, ptr %6) #11
  br label %226

170:                                              ; preds = %162
  call void @llvm.lifetime.start.p0(i64 4, ptr %7) #11
  %171 = load ptr, ptr %2, align 8, !tbaa !20
  %172 = getelementptr inbounds nuw %struct.MPVEncContext, ptr %171, i32 0, i32 0
  %173 = getelementptr inbounds nuw %struct.MpegEncContext, ptr %172, i32 0, i32 89
  %174 = load ptr, ptr %173, align 8, !tbaa !69
  %175 = load i32, ptr %6, align 4, !tbaa !9
  %176 = sext i32 %175 to i64
  %177 = getelementptr inbounds i32, ptr %174, i64 %176
  %178 = load i32, ptr %177, align 4, !tbaa !9
  store i32 %178, ptr %7, align 4, !tbaa !9
  %179 = load ptr, ptr %3, align 8, !tbaa !68
  %180 = load i32, ptr %7, align 4, !tbaa !9
  %181 = sext i32 %180 to i64
  %182 = getelementptr inbounds i8, ptr %179, i64 %181
  %183 = load i8, ptr %182, align 1, !tbaa !11
  %184 = sext i8 %183 to i32
  %185 = load ptr, ptr %3, align 8, !tbaa !68
  %186 = load ptr, ptr %2, align 8, !tbaa !20
  %187 = getelementptr inbounds nuw %struct.MPVEncContext, ptr %186, i32 0, i32 0
  %188 = getelementptr inbounds nuw %struct.MpegEncContext, ptr %187, i32 0, i32 89
  %189 = load ptr, ptr %188, align 8, !tbaa !69
  %190 = load i32, ptr %6, align 4, !tbaa !9
  %191 = sub nsw i32 %190, 1
  %192 = sext i32 %191 to i64
  %193 = getelementptr inbounds i32, ptr %189, i64 %192
  %194 = load i32, ptr %193, align 4, !tbaa !9
  %195 = sext i32 %194 to i64
  %196 = getelementptr inbounds i8, ptr %185, i64 %195
  %197 = load i8, ptr %196, align 1, !tbaa !11
  %198 = sext i8 %197 to i32
  %199 = icmp ne i32 %184, %198
  br i1 %199, label %200, label %222

200:                                              ; preds = %170
  %201 = load ptr, ptr %2, align 8, !tbaa !20
  %202 = getelementptr inbounds nuw %struct.MPVEncContext, ptr %201, i32 0, i32 30
  %203 = load ptr, ptr %202, align 8, !tbaa !73
  %204 = load i32, ptr %7, align 4, !tbaa !9
  %205 = sext i32 %204 to i64
  %206 = getelementptr inbounds i16, ptr %203, i64 %205
  %207 = load i16, ptr %206, align 2, !tbaa !62
  %208 = zext i16 %207 to i32
  %209 = and i32 %208, 4
  %210 = icmp ne i32 %209, 0
  br i1 %210, label %211, label %222

211:                                              ; preds = %200
  %212 = load ptr, ptr %2, align 8, !tbaa !20
  %213 = getelementptr inbounds nuw %struct.MPVEncContext, ptr %212, i32 0, i32 30
  %214 = load ptr, ptr %213, align 8, !tbaa !73
  %215 = load i32, ptr %7, align 4, !tbaa !9
  %216 = sext i32 %215 to i64
  %217 = getelementptr inbounds i16, ptr %214, i64 %216
  %218 = load i16, ptr %217, align 2, !tbaa !62
  %219 = zext i16 %218 to i32
  %220 = or i32 %219, 2
  %221 = trunc i32 %220 to i16
  store i16 %221, ptr %217, align 2, !tbaa !62
  br label %222

222:                                              ; preds = %211, %200, %170
  call void @llvm.lifetime.end.p0(i64 4, ptr %7) #11
  br label %223

223:                                              ; preds = %222
  %224 = load i32, ptr %6, align 4, !tbaa !9
  %225 = add nsw i32 %224, 1
  store i32 %225, ptr %6, align 4, !tbaa !9
  br label %162, !llvm.loop !74

226:                                              ; preds = %169
  br label %227

227:                                              ; preds = %226, %155
  call void @llvm.lifetime.end.p0(i64 8, ptr %3) #11
  ret void
}