; Function Attrs: nofree norecurse nosync nounwind memory(readwrite, inaccessiblemem: none) uwtable
define void @ff_clean_h263_qscales(ptr noundef readonly captures(none) %0) local_unnamed_addr #6 {
  %2 = getelementptr inbounds nuw i8, ptr %0, i64 1216
  %3 = load ptr, ptr %2, align 8, !tbaa !61
  %4 = getelementptr inbounds nuw i8, ptr %0, i64 564
  %5 = load i32, ptr %4, align 4, !tbaa !52
  %6 = icmp sgt i32 %5, 1
  br i1 %6, label %.lr.ph, label %._crit_edge55

.lr.ph:                                           ; preds = %1
  %7 = getelementptr inbounds nuw i8, ptr %0, i64 3440
  br label %12

._crit_edge:                                      ; preds = %31
  %8 = icmp sgt i32 %32, 1
  br i1 %8, label %.lr.ph54, label %._crit_edge55

.lr.ph54:                                         ; preds = %._crit_edge
  %9 = add nsw i32 %32, -2
  %10 = getelementptr inbounds nuw i8, ptr %0, i64 3440
  %11 = zext nneg i32 %9 to i64
  br label %42

12:                                               ; preds = %.lr.ph, %31
  %13 = phi i32 [ %5, %.lr.ph ], [ %32, %31 ]
  %indvars.iv = phi i64 [ 1, %.lr.ph ], [ %indvars.iv.next, %31 ]
  %14 = load ptr, ptr %7, align 8, !tbaa !62
  %15 = getelementptr inbounds nuw i32, ptr %14, i64 %indvars.iv
  %16 = load i32, ptr %15, align 4, !tbaa !63
  %17 = sext i32 %16 to i64
  %18 = getelementptr inbounds i8, ptr %3, i64 %17
  %19 = load i8, ptr %18, align 1, !tbaa !14
  %20 = sext i8 %19 to i32
  %21 = getelementptr i8, ptr %15, i64 -4
  %22 = load i32, ptr %21, align 4, !tbaa !63
  %23 = sext i32 %22 to i64
  %24 = getelementptr inbounds i8, ptr %3, i64 %23
  %25 = load i8, ptr %24, align 1, !tbaa !14
  %26 = sext i8 %25 to i32
  %27 = sub nsw i32 %20, %26
  %28 = icmp sgt i32 %27, 2
  br i1 %28, label %29, label %31

29:                                               ; preds = %12
  %30 = add i8 %25, 2
  store i8 %30, ptr %18, align 1, !tbaa !14
  %.pre = load i32, ptr %4, align 4, !tbaa !52
  br label %31

31:                                               ; preds = %12, %29
  %32 = phi i32 [ %13, %12 ], [ %.pre, %29 ]
  %indvars.iv.next = add nuw nsw i64 %indvars.iv, 1
  %33 = sext i32 %32 to i64
  %34 = icmp slt i64 %indvars.iv.next, %33
  br i1 %34, label %12, label %._crit_edge, !llvm.loop !64

._crit_edge55:                                    ; preds = %60, %1, %._crit_edge
  %35 = getelementptr inbounds nuw i8, ptr %0, i64 516
  %36 = load i32, ptr %35, align 4, !tbaa !65
  %.not = icmp eq i32 %36, 19
  br i1 %.not, label %.loopexit, label %.preheader

.preheader:                                       ; preds = %._crit_edge55
  %37 = load i32, ptr %4, align 4, !tbaa !52
  %38 = icmp sgt i32 %37, 1
  br i1 %38, label %.lr.ph57, label %.loopexit

.lr.ph57:                                         ; preds = %.preheader
  %39 = getelementptr inbounds nuw i8, ptr %0, i64 3440
  %40 = load ptr, ptr %39, align 8, !tbaa !62
  %41 = getelementptr inbounds nuw i8, ptr %0, i64 6472
  %wide.trip.count = zext nneg i32 %37 to i64
  br label %62

42:                                               ; preds = %.lr.ph54, %60
  %indvars.iv60 = phi i64 [ %11, %.lr.ph54 ], [ %indvars.iv.next61, %60 ]
  %43 = load ptr, ptr %10, align 8, !tbaa !62
  %44 = getelementptr inbounds nuw i32, ptr %43, i64 %indvars.iv60
  %45 = load i32, ptr %44, align 4, !tbaa !63
  %46 = sext i32 %45 to i64
  %47 = getelementptr inbounds i8, ptr %3, i64 %46
  %48 = load i8, ptr %47, align 1, !tbaa !14
  %49 = sext i8 %48 to i32
  %50 = getelementptr inbounds nuw i8, ptr %44, i64 4
  %51 = load i32, ptr %50, align 4, !tbaa !63
  %52 = sext i32 %51 to i64
  %53 = getelementptr inbounds i8, ptr %3, i64 %52
  %54 = load i8, ptr %53, align 1, !tbaa !14
  %55 = sext i8 %54 to i32
  %56 = sub nsw i32 %49, %55
  %57 = icmp sgt i32 %56, 2
  br i1 %57, label %58, label %60

58:                                               ; preds = %42
  %59 = add i8 %54, 2
  store i8 %59, ptr %47, align 1, !tbaa !14
  br label %60

60:                                               ; preds = %42, %58
  %indvars.iv.next61 = add nsw i64 %indvars.iv60, -1
  %61 = icmp sgt i64 %indvars.iv60, 0
  br i1 %61, label %42, label %._crit_edge55, !llvm.loop !66

62:                                               ; preds = %.lr.ph57, %80
  %indvars.iv63 = phi i64 [ 1, %.lr.ph57 ], [ %indvars.iv.next64, %80 ]
  %63 = getelementptr inbounds nuw i32, ptr %40, i64 %indvars.iv63
  %64 = load i32, ptr %63, align 4, !tbaa !63
  %65 = sext i32 %64 to i64
  %66 = getelementptr inbounds i8, ptr %3, i64 %65
  %67 = load i8, ptr %66, align 1, !tbaa !14
  %68 = getelementptr i8, ptr %63, i64 -4
  %69 = load i32, ptr %68, align 4, !tbaa !63
  %70 = sext i32 %69 to i64
  %71 = getelementptr inbounds i8, ptr %3, i64 %70
  %72 = load i8, ptr %71, align 1, !tbaa !14
  %.not48 = icmp eq i8 %67, %72
  br i1 %.not48, label %80, label %73

73:                                               ; preds = %62
  %74 = load ptr, ptr %41, align 8, !tbaa !67
  %75 = getelementptr inbounds i16, ptr %74, i64 %65
  %76 = load i16, ptr %75, align 2, !tbaa !53
  %77 = and i16 %76, 4
  %.not49 = icmp eq i16 %77, 0
  br i1 %.not49, label %80, label %78

78:                                               ; preds = %73
  %79 = or i16 %76, 2
  store i16 %79, ptr %75, align 2, !tbaa !53
  br label %80

80:                                               ; preds = %78, %73, %62
  %indvars.iv.next64 = add nuw nsw i64 %indvars.iv63, 1
  %exitcond.not = icmp eq i64 %indvars.iv.next64, %wide.trip.count
  br i1 %exitcond.not, label %.loopexit, label %62, !llvm.loop !68

.loopexit:                                        ; preds = %80, %.preheader, %._crit_edge55
  ret void
}